; Function Attrs: mustprogress uwtable
define hidden void @_ZN11ast_manager9linearizeEPN18dependency_managerINS_22expr_dependency_configEE10dependencyER10ptr_vectorI4exprE(ptr noundef nonnull align 8 dereferenceable(976) %0, ptr noundef %1, ptr noundef nonnull align 8 dereferenceable(8) %2) local_unnamed_addr #7 align 2 {
  %.not.i = icmp eq ptr %1, null
  br i1 %.not.i, label %_ZNK18dependency_managerIN11ast_manager22expr_dependency_configEE9linearizeEPNS2_10dependencyER6vectorIP4exprLb0EjE.exit, label %4

4:                                                ; preds = %3
  %5 = load i32, ptr %1, align 4
  %6 = or i32 %5, 1073741824
  store i32 %6, ptr %1, align 4
  %7 = getelementptr inbounds nuw i8, ptr %0, i64 664
  %8 = load ptr, ptr %7, align 8, !tbaa !323
  %9 = icmp eq ptr %8, null
  br i1 %9, label %16, label %10

10:                                               ; preds = %4
  %11 = getelementptr inbounds i8, ptr %8, i64 -4
  %12 = load i32, ptr %11, align 4, !tbaa !24
  %13 = getelementptr inbounds i8, ptr %8, i64 -8
  %14 = load i32, ptr %13, align 4, !tbaa !24
  %15 = icmp eq i32 %12, %14
  br i1 %15, label %16, label %_ZN6vectorIPN18dependency_managerIN11ast_manager22expr_dependency_configEE10dependencyELb0EjE9push_backERKS5_.exit.i

16:                                               ; preds = %10, %4
  tail call void @_ZN6vectorIPN18dependency_managerIN11ast_manager22expr_dependency_configEE10dependencyELb0EjE13expand_vectorEv(ptr noundef nonnull align 8 dereferenceable(8) %7)
  %.pre.i.i = load ptr, ptr %7, align 8, !tbaa !323
  %.phi.trans.insert.i.i = getelementptr inbounds i8, ptr %.pre.i.i, i64 -4
  %.pre2.i.i = load i32, ptr %.phi.trans.insert.i.i, align 4, !tbaa !24
  br label %_ZN6vectorIPN18dependency_managerIN11ast_manager22expr_dependency_configEE10dependencyELb0EjE9push_backERKS5_.exit.i

_ZN6vectorIPN18dependency_managerIN11ast_manager22expr_dependency_configEE10dependencyELb0EjE9push_backERKS5_.exit.i: ; preds = %16, %10
  %17 = phi i32 [ %.pre2.i.i, %16 ], [ %12, %10 ]
  %18 = phi ptr [ %.pre.i.i, %16 ], [ %8, %10 ]
  %19 = getelementptr inbounds i8, ptr %18, i64 -4
  %20 = zext i32 %17 to i64
  %21 = getelementptr inbounds nuw ptr, ptr %18, i64 %20
  store ptr %1, ptr %21, align 8, !tbaa !505
  %22 = add i32 %17, 1
  store i32 %22, ptr %19, align 4, !tbaa !24
  tail call void @_ZN18dependency_managerIN11ast_manager22expr_dependency_configEE14linearize_todoER10ptr_vectorINS2_10dependencyEER6vectorIP4exprLb0EjE(ptr noundef nonnull align 8 dereferenceable(8) %7, ptr noundef nonnull align 8 dereferenceable(8) %2)
  %23 = load ptr, ptr %7, align 8, !tbaa !323
  %.not.i.i = icmp eq ptr %23, null
  br i1 %.not.i.i, label %_ZNK18dependency_managerIN11ast_manager22expr_dependency_configEE9linearizeEPNS2_10dependencyER6vectorIP4exprLb0EjE.exit, label %24

24:                                               ; preds = %_ZN6vectorIPN18dependency_managerIN11ast_manager22expr_dependency_configEE10dependencyELb0EjE9push_backERKS5_.exit.i
  %25 = getelementptr inbounds i8, ptr %23, i64 -4
  store i32 0, ptr %25, align 4, !tbaa !24
  br label %_ZNK18dependency_managerIN11ast_manager22expr_dependency_configEE9linearizeEPNS2_10dependencyER6vectorIP4exprLb0EjE.exit

_ZNK18dependency_managerIN11ast_manager22expr_dependency_configEE9linearizeEPNS2_10dependencyER6vectorIP4exprLb0EjE.exit: ; preds = %3, %_ZN6vectorIPN18dependency_managerIN11ast_manager22expr_dependency_configEE10dependencyELb0EjE9push_backERKS5_.exit.i, %24
  tail call void @_Z17remove_duplicatesI10ptr_vectorI4exprEEvRT_(ptr noundef nonnull align 8 dereferenceable(8) %2)
  ret void
}